target datalayout = "e-m:e-p270:32:32-p271:32:32-p272:64:64-i64:64-i128:128-f80:128-n8:16:32:64-S128"
target triple = "x86_64-pc-linux-gnu"

%struct.opj_jp2 = type { ptr, ptr, ptr, i32, i32, i32, i32, i32, i32, i32, i32, i32, i32, i32, i32, i32, i32, ptr, ptr, i64, i64, i32, i32, i32, %struct.opj_jp2_color, i32, i8, i8 }
%struct.opj_jp2_color = type { ptr, i32, ptr, ptr, i8 }

; Function Attrs: nounwind uwtable
define hidden ptr @opj_jp2_create(i32 noundef %0) #0 {
  %2 = alloca ptr, align 8
  %3 = alloca i32, align 4
  %4 = alloca ptr, align 8
  %5 = alloca i32, align 4
  store i32 %0, ptr %3, align 4, !tbaa !39
  call void @llvm.lifetime.start.p0(i64 8, ptr %4) #5
  %6 = call ptr @opj_calloc(i64 noundef 1, i64 noundef 176)
  store ptr %6, ptr %4, align 8, !tbaa !3
  %7 = load ptr, ptr %4, align 8, !tbaa !3
  %8 = icmp ne ptr %7, null
  br i1 %8, label %9, label %63

9:                                                ; preds = %1
  %10 = load i32, ptr %3, align 4, !tbaa !39
  %11 = icmp ne i32 %10, 0
  br i1 %11, label %16, label %12

12:                                               ; preds = %9
  %13 = call ptr @opj_j2k_create_compress()
  %14 = load ptr, ptr %4, align 8, !tbaa !3
  %15 = getelementptr inbounds nuw %struct.opj_jp2, ptr %14, i32 0, i32 0
  store ptr %13, ptr %15, align 8, !tbaa !14
  br label %20

16:                                               ; preds = %9
  %17 = call ptr @opj_j2k_create_decompress()
  %18 = load ptr, ptr %4, align 8, !tbaa !3
  %19 = getelementptr inbounds nuw %struct.opj_jp2, ptr %18, i32 0, i32 0
  store ptr %17, ptr %19, align 8, !tbaa !14
  br label %20

20:                                               ; preds = %16, %12
  %21 = load ptr, ptr %4, align 8, !tbaa !3
  %22 = getelementptr inbounds nuw %struct.opj_jp2, ptr %21, i32 0, i32 0
  %23 = load ptr, ptr %22, align 8, !tbaa !14
  %24 = icmp eq ptr %23, null
  br i1 %24, label %25, label %27

25:                                               ; preds = %20
  %26 = load ptr, ptr %4, align 8, !tbaa !3
  call void @opj_jp2_destroy(ptr noundef %26)
  store ptr null, ptr %2, align 8
  store i32 1, ptr %5, align 4
  br label %65

27:                                               ; preds = %20
  %28 = load ptr, ptr %4, align 8, !tbaa !3
  %29 = getelementptr inbounds nuw %struct.opj_jp2, ptr %28, i32 0, i32 24
  %30 = getelementptr inbounds nuw %struct.opj_jp2_color, ptr %29, i32 0, i32 0
  store ptr null, ptr %30, align 8, !tbaa !102
  %31 = load ptr, ptr %4, align 8, !tbaa !3
  %32 = getelementptr inbounds nuw %struct.opj_jp2, ptr %31, i32 0, i32 24
  %33 = getelementptr inbounds nuw %struct.opj_jp2_color, ptr %32, i32 0, i32 1
  store i32 0, ptr %33, align 8, !tbaa !104
  %34 = load ptr, ptr %4, align 8, !tbaa !3
  %35 = getelementptr inbounds nuw %struct.opj_jp2, ptr %34, i32 0, i32 24
  %36 = getelementptr inbounds nuw %struct.opj_jp2_color, ptr %35, i32 0, i32 2
  store ptr null, ptr %36, align 8, !tbaa !33
  %37 = load ptr, ptr %4, align 8, !tbaa !3
  %38 = getelementptr inbounds nuw %struct.opj_jp2, ptr %37, i32 0, i32 24
  %39 = getelementptr inbounds nuw %struct.opj_jp2_color, ptr %38, i32 0, i32 3
  store ptr null, ptr %39, align 8, !tbaa !28
  %40 = load ptr, ptr %4, align 8, !tbaa !3
  %41 = getelementptr inbounds nuw %struct.opj_jp2, ptr %40, i32 0, i32 24
  %42 = getelementptr inbounds nuw %struct.opj_jp2_color, ptr %41, i32 0, i32 4
  store i8 0, ptr %42, align 8, !tbaa !36
  %43 = call ptr @opj_procedure_list_create()
  %44 = load ptr, ptr %4, align 8, !tbaa !3
  %45 = getelementptr inbounds nuw %struct.opj_jp2, ptr %44, i32 0, i32 1
  store ptr %43, ptr %45, align 8, !tbaa !97
  %46 = load ptr, ptr %4, align 8, !tbaa !3
  %47 = getelementptr inbounds nuw %struct.opj_jp2, ptr %46, i32 0, i32 1
  %48 = load ptr, ptr %47, align 8, !tbaa !97
  %49 = icmp ne ptr %48, null
  br i1 %49, label %52, label %50

50:                                               ; preds = %27
  %51 = load ptr, ptr %4, align 8, !tbaa !3
  call void @opj_jp2_destroy(ptr noundef %51)
  store ptr null, ptr %2, align 8
  store i32 1, ptr %5, align 4
  br label %65

52:                                               ; preds = %27
  %53 = call ptr @opj_procedure_list_create()
  %54 = load ptr, ptr %4, align 8, !tbaa !3
  %55 = getelementptr inbounds nuw %struct.opj_jp2, ptr %54, i32 0, i32 2
  store ptr %53, ptr %55, align 8, !tbaa !91
  %56 = load ptr, ptr %4, align 8, !tbaa !3
  %57 = getelementptr inbounds nuw %struct.opj_jp2, ptr %56, i32 0, i32 2
  %58 = load ptr, ptr %57, align 8, !tbaa !91
  %59 = icmp ne ptr %58, null
  br i1 %59, label %62, label %60

60:                                               ; preds = %52
  %61 = load ptr, ptr %4, align 8, !tbaa !3
  call void @opj_jp2_destroy(ptr noundef %61)
  store ptr null, ptr %2, align 8
  store i32 1, ptr %5, align 4
  br label %65

62:                                               ; preds = %52
  br label %63

63:                                               ; preds = %62, %1
  %64 = load ptr, ptr %4, align 8, !tbaa !3
  store ptr %64, ptr %2, align 8
  store i32 1, ptr %5, align 4
  br label %65

65:                                               ; preds = %63, %60, %50, %25
  call void @llvm.lifetime.end.p0(i64 8, ptr %4) #5
  %66 = load ptr, ptr %2, align 8
  ret ptr %66
}