; Function Attrs: nounwind uwtable
define hidden ptr @opj_jp2_create(i32 noundef %0) local_unnamed_addr #0 {
  %2 = tail call ptr @opj_calloc(i64 noundef 1, i64 noundef 176) #6
  %.not = icmp eq ptr %2, null
  br i1 %.not, label %19, label %3

3:                                                ; preds = %1
  %.not19 = icmp eq i32 %0, 0
  br i1 %.not19, label %4, label %6

4:                                                ; preds = %3
  %5 = tail call ptr @opj_j2k_create_compress() #6
  br label %8

6:                                                ; preds = %3
  %7 = tail call ptr @opj_j2k_create_decompress() #6
  br label %8

8:                                                ; preds = %6, %4
  %storemerge = phi ptr [ %5, %4 ], [ %7, %6 ]
  store ptr %storemerge, ptr %2, align 8, !tbaa !3
  %9 = icmp eq ptr %storemerge, null
  br i1 %9, label %.sink.split, label %10

10:                                               ; preds = %8
  %11 = getelementptr inbounds nuw i8, ptr %2, i64 128
  store ptr null, ptr %11, align 8, !tbaa !118
  %12 = getelementptr inbounds nuw i8, ptr %2, i64 136
  store i32 0, ptr %12, align 8, !tbaa !120
  %13 = getelementptr inbounds nuw i8, ptr %2, i64 144
  tail call void @llvm.memset.p0.i64(ptr noundef nonnull align 8 dereferenceable(17) %13, i8 0, i64 17, i1 false)
  %14 = tail call ptr @opj_procedure_list_create() #6
  %15 = getelementptr inbounds nuw i8, ptr %2, i64 8
  store ptr %14, ptr %15, align 8, !tbaa !113
  %.not20 = icmp eq ptr %14, null
  br i1 %.not20, label %.sink.split, label %16

16:                                               ; preds = %10
  %17 = tail call ptr @opj_procedure_list_create() #6
  %18 = getelementptr inbounds nuw i8, ptr %2, i64 16
  store ptr %17, ptr %18, align 8, !tbaa !110
  %.not21 = icmp eq ptr %17, null
  br i1 %.not21, label %.sink.split, label %19

.sink.split:                                      ; preds = %16, %10, %8
  tail call void @opj_jp2_destroy(ptr noundef nonnull %2)
  br label %19

19:                                               ; preds = %.sink.split, %1, %16
  %.0 = phi ptr [ %2, %16 ], [ null, %1 ], [ null, %.sink.split ]
  ret ptr %.0
}